; ModuleID = 'source-C-CXX/41/275.cpp'
source_filename = "source-C-CXX/41/275.cpp"
target datalayout = "e-m:e-p270:32:32-p271:32:32-p272:64:64-i64:64-f80:128-n8:16:32:64-S128"
target triple = "x86_64-pc-linux-gnu"

%"class.std::ios_base::Init" = type { i8 }
%"class.std::basic_istream" = type { i32 (...)**, i64, %"class.std::basic_ios" }
%"class.std::basic_ios" = type { %"class.std::ios_base", %"class.std::basic_ostream"*, i8, i8, %"class.std::basic_streambuf"*, %"class.std::ctype"*, %"class.std::num_put"*, %"class.std::num_get"* }
%"class.std::ios_base" = type { i32 (...)**, i64, i64, i32, i32, i32, %"struct.std::ios_base::_Callback_list"*, %"struct.std::ios_base::_Words", [8 x %"struct.std::ios_base::_Words"], i32, %"struct.std::ios_base::_Words"*, %"class.std::locale" }
%"struct.std::ios_base::_Callback_list" = type { %"struct.std::ios_base::_Callback_list"*, void (i32, %"class.std::ios_base"*, i32)*, i32, i32 }
%"struct.std::ios_base::_Words" = type { i8*, i64 }
%"class.std::locale" = type { %"class.std::locale::_Impl"* }
%"class.std::locale::_Impl" = type { i32, %"class.std::locale::facet"**, i64, %"class.std::locale::facet"**, i8** }
%"class.std::locale::facet" = type <{ i32 (...)**, i32, [4 x i8] }>
%"class.std::basic_ostream" = type { i32 (...)**, %"class.std::basic_ios" }
%"class.std::basic_streambuf" = type { i32 (...)**, i8*, i8*, i8*, i8*, i8*, i8*, %"class.std::locale" }
%"class.std::ctype" = type <{ %"class.std::locale::facet.base", [4 x i8], %struct.__locale_struct*, i8, [7 x i8], i32*, i32*, i16*, i8, [256 x i8], [256 x i8], i8, [6 x i8] }>
%"class.std::locale::facet.base" = type <{ i32 (...)**, i32 }>
%struct.__locale_struct = type { [13 x %struct.__locale_data*], i16*, i32*, i32*, [13 x i8*] }
%struct.__locale_data = type opaque
%"class.std::num_put" = type { %"class.std::locale::facet.base", [4 x i8] }
%"class.std::num_get" = type { %"class.std::locale::facet.base", [4 x i8] }

@_ZStL8__ioinit = internal global %"class.std::ios_base::Init" zeroinitializer, align 1
@__dso_handle = external hidden global i8
@_ZSt3cin = external global %"class.std::basic_istream", align 8
@_ZSt4cout = external global %"class.std::basic_ostream", align 8
@.str = private unnamed_addr constant [2 x i8] c" \00", align 1
@llvm.global_ctors = appending global [1 x { i32, void ()*, i8* }] [{ i32, void ()*, i8* } { i32 65535, void ()* @_GLOBAL__sub_I_275.cpp, i8* null }]

declare void @_ZNSt8ios_base4InitC1Ev(%"class.std::ios_base::Init"* nonnull align 1 dereferenceable(1)) unnamed_addr #0

; Function Attrs: nounwind
declare void @_ZNSt8ios_base4InitD1Ev(%"class.std::ios_base::Init"* nonnull align 1 dereferenceable(1)) unnamed_addr #1

; Function Attrs: nofree nounwind
declare i32 @__cxa_atexit(void (i8*)*, i8*, i8*) local_unnamed_addr #2

; Function Attrs: mustprogress norecurse sspstrong uwtable
define dso_local i32 @main() local_unnamed_addr #3 {
  %1 = alloca i32, align 4
  %2 = alloca i32, align 4
  %3 = bitcast i32* %1 to i8*
  call void @llvm.lifetime.start.p0i8(i64 4, i8* nonnull %3) #8
  %4 = bitcast i32* %2 to i8*
  call void @llvm.lifetime.start.p0i8(i64 4, i8* nonnull %4) #8
  %5 = call nonnull align 8 dereferenceable(16) %"class.std::basic_istream"* @_ZNSirsERi(%"class.std::basic_istream"* nonnull align 8 dereferenceable(16) @_ZSt3cin, i32* nonnull align 4 dereferenceable(4) %1)
  %6 = load i32, i32* %1, align 4, !tbaa !5
  %7 = zext i32 %6 to i64
  %8 = call i8* @llvm.stacksave()
  %9 = alloca i32, i64 %7, align 16
  %10 = load i32, i32* %1, align 4, !tbaa !5
  %11 = icmp sgt i32 %10, 0
  br i1 %11, label %12, label %20

12:                                               ; preds = %0, %12
  %13 = phi i64 [ %16, %12 ], [ 0, %0 ]
  %14 = getelementptr inbounds i32, i32* %9, i64 %13
  %15 = call nonnull align 8 dereferenceable(16) %"class.std::basic_istream"* @_ZNSirsERi(%"class.std::basic_istream"* nonnull align 8 dereferenceable(16) @_ZSt3cin, i32* nonnull align 4 dereferenceable(4) %14)
  %16 = add nuw nsw i64 %13, 1
  %17 = load i32, i32* %1, align 4, !tbaa !5
  %18 = sext i32 %17 to i64
  %19 = icmp slt i64 %16, %18
  br i1 %19, label %12, label %20, !llvm.loop !9

20:                                               ; preds = %12, %0
  %21 = call nonnull align 8 dereferenceable(16) %"class.std::basic_istream"* @_ZNSirsERi(%"class.std::basic_istream"* nonnull align 8 dereferenceable(16) @_ZSt3cin, i32* nonnull align 4 dereferenceable(4) %2)
  %22 = load i32, i32* %1, align 4, !tbaa !5
  %23 = load i32, i32* %2, align 4
  %24 = icmp sgt i32 %22, 0
  br i1 %24, label %25, label %136

25:                                               ; preds = %20
  %26 = sext i32 %22 to i64
  br label %30

27:                                               ; preds = %113
  %28 = xor i32 %114, -1
  %29 = icmp sgt i32 %22, %114
  br i1 %29, label %118, label %136

30:                                               ; preds = %25, %113
  %31 = phi i32 [ %116, %113 ], [ 0, %25 ]
  %32 = phi i32 [ %114, %113 ], [ 0, %25 ]
  %33 = sext i32 %31 to i64
  %34 = getelementptr inbounds i32, i32* %9, i64 %33
  %35 = load i32, i32* %34, align 4, !tbaa !5
  %36 = icmp eq i32 %35, %23
  br i1 %36, label %37, label %113

37:                                               ; preds = %30
  %38 = icmp slt i32 %31, %22
  br i1 %38, label %39, label %110

39:                                               ; preds = %37
  %40 = sub nsw i64 %26, %33
  %41 = icmp ult i64 %40, 8
  br i1 %41, label %101, label %42

42:                                               ; preds = %39
  %43 = and i64 %40, -8
  %44 = add nsw i64 %43, %33
  %45 = add nsw i64 %43, -8
  %46 = lshr exact i64 %45, 3
  %47 = add nuw nsw i64 %46, 1
  %48 = and i64 %47, 1
  %49 = icmp eq i64 %45, 0
  br i1 %49, label %83, label %50

50:                                               ; preds = %42
  %51 = and i64 %47, 4611686018427387902
  br label %52

52:                                               ; preds = %52, %50
  %53 = phi i64 [ 0, %50 ], [ %80, %52 ]
  %54 = phi i64 [ %51, %50 ], [ %81, %52 ]
  %55 = add i64 %53, %33
  %56 = add nsw i64 %55, 1
  %57 = getelementptr inbounds i32, i32* %9, i64 %56
  %58 = bitcast i32* %57 to <4 x i32>*
  %59 = load <4 x i32>, <4 x i32>* %58, align 4, !tbaa !5
  %60 = getelementptr inbounds i32, i32* %57, i64 4
  %61 = bitcast i32* %60 to <4 x i32>*
  %62 = load <4 x i32>, <4 x i32>* %61, align 4, !tbaa !5
  %63 = getelementptr inbounds i32, i32* %9, i64 %55
  %64 = bitcast i32* %63 to <4 x i32>*
  store <4 x i32> %59, <4 x i32>* %64, align 4, !tbaa !5
  %65 = getelementptr inbounds i32, i32* %63, i64 4
  %66 = bitcast i32* %65 to <4 x i32>*
  store <4 x i32> %62, <4 x i32>* %66, align 4, !tbaa !5
  %67 = or i64 %53, 8
  %68 = add i64 %67, %33
  %69 = add nsw i64 %68, 1
  %70 = getelementptr inbounds i32, i32* %9, i64 %69
  %71 = bitcast i32* %70 to <4 x i32>*
  %72 = load <4 x i32>, <4 x i32>* %71, align 4, !tbaa !5
  %73 = getelementptr inbounds i32, i32* %70, i64 4
  %74 = bitcast i32* %73 to <4 x i32>*
  %75 = load <4 x i32>, <4 x i32>* %74, align 4, !tbaa !5
  %76 = getelementptr inbounds i32, i32* %9, i64 %68
  %77 = bitcast i32* %76 to <4 x i32>*
  store <4 x i32> %72, <4 x i32>* %77, align 4, !tbaa !5
  %78 = getelementptr inbounds i32, i32* %76, i64 4
  %79 = bitcast i32* %78 to <4 x i32>*
  store <4 x i32> %75, <4 x i32>* %79, align 4, !tbaa !5
  %80 = add nuw i64 %53, 16
  %81 = add i64 %54, -2
  %82 = icmp eq i64 %81, 0
  br i1 %82, label %83, label %52, !llvm.loop !11

83:                                               ; preds = %52, %42
  %84 = phi i64 [ 0, %42 ], [ %80, %52 ]
  %85 = icmp eq i64 %48, 0
  br i1 %85, label %99, label %86

86:                                               ; preds = %83
  %87 = add i64 %84, %33
  %88 = add nsw i64 %87, 1
  %89 = getelementptr inbounds i32, i32* %9, i64 %88
  %90 = bitcast i32* %89 to <4 x i32>*
  %91 = load <4 x i32>, <4 x i32>* %90, align 4, !tbaa !5
  %92 = getelementptr inbounds i32, i32* %89, i64 4
  %93 = bitcast i32* %92 to <4 x i32>*
  %94 = load <4 x i32>, <4 x i32>* %93, align 4, !tbaa !5
  %95 = getelementptr inbounds i32, i32* %9, i64 %87
  %96 = bitcast i32* %95 to <4 x i32>*
  store <4 x i32> %91, <4 x i32>* %96, align 4, !tbaa !5
  %97 = getelementptr inbounds i32, i32* %95, i64 4
  %98 = bitcast i32* %97 to <4 x i32>*
  store <4 x i32> %94, <4 x i32>* %98, align 4, !tbaa !5
  br label %99

99:                                               ; preds = %83, %86
  %100 = icmp eq i64 %40, %43
  br i1 %100, label %110, label %101

101:                                              ; preds = %39, %99
  %102 = phi i64 [ %33, %39 ], [ %44, %99 ]
  br label %103

103:                                              ; preds = %101, %103
  %104 = phi i64 [ %105, %103 ], [ %102, %101 ]
  %105 = add nsw i64 %104, 1
  %106 = getelementptr inbounds i32, i32* %9, i64 %105
  %107 = load i32, i32* %106, align 4, !tbaa !5
  %108 = getelementptr inbounds i32, i32* %9, i64 %104
  store i32 %107, i32* %108, align 4, !tbaa !5
  %109 = icmp eq i64 %105, %26
  br i1 %109, label %110, label %103, !llvm.loop !13

110:                                              ; preds = %103, %99, %37
  %111 = add nsw i32 %31, -1
  %112 = add nsw i32 %32, 1
  br label %113

113:                                              ; preds = %30, %110
  %114 = phi i32 [ %112, %110 ], [ %32, %30 ]
  %115 = phi i32 [ %111, %110 ], [ %31, %30 ]
  %116 = add nsw i32 %115, 1
  %117 = icmp slt i32 %116, %22
  br i1 %117, label %30, label %27, !llvm.loop !15

118:                                              ; preds = %27, %130
  %119 = phi i64 [ %132, %130 ], [ 0, %27 ]
  %120 = getelementptr inbounds i32, i32* %9, i64 %119
  %121 = load i32, i32* %120, align 4, !tbaa !5
  %122 = call nonnull align 8 dereferenceable(8) %"class.std::basic_ostream"* @_ZNSolsEi(%"class.std::basic_ostream"* nonnull align 8 dereferenceable(8) @_ZSt4cout, i32 %121)
  %123 = load i32, i32* %1, align 4, !tbaa !5
  %124 = add i32 %123, %28
  %125 = zext i32 %124 to i64
  %126 = icmp eq i64 %119, %125
  br i1 %126, label %130, label %127

127:                                              ; preds = %118
  %128 = call nonnull align 8 dereferenceable(8) %"class.std::basic_ostream"* @_ZSt16__ostream_insertIcSt11char_traitsIcEERSt13basic_ostreamIT_T0_ES6_PKS3_l(%"class.std::basic_ostream"* nonnull align 8 dereferenceable(8) @_ZSt4cout, i8* nonnull getelementptr inbounds ([2 x i8], [2 x i8]* @.str, i64 0, i64 0), i64 1)
  %129 = load i32, i32* %1, align 4, !tbaa !5
  br label %130

130:                                              ; preds = %118, %127
  %131 = phi i32 [ %123, %118 ], [ %129, %127 ]
  %132 = add nuw nsw i64 %119, 1
  %133 = sub nsw i32 %131, %114
  %134 = sext i32 %133 to i64
  %135 = icmp slt i64 %132, %134
  br i1 %135, label %118, label %136, !llvm.loop !16

136:                                              ; preds = %130, %20, %27
  %137 = load i8*, i8** bitcast (%"class.std::basic_ostream"* @_ZSt4cout to i8**), align 8, !tbaa !17
  %138 = getelementptr i8, i8* %137, i64 -24
  %139 = bitcast i8* %138 to i64*
  %140 = load i64, i64* %139, align 8
  %141 = add nsw i64 %140, 240
  %142 = getelementptr inbounds i8, i8* bitcast (%"class.std::basic_ostream"* @_ZSt4cout to i8*), i64 %141
  %143 = bitcast i8* %142 to %"class.std::ctype"**
  %144 = load %"class.std::ctype"*, %"class.std::ctype"** %143, align 8, !tbaa !19
  %145 = icmp eq %"class.std::ctype"* %144, null
  br i1 %145, label %146, label %147

146:                                              ; preds = %136
  call void @_ZSt16__throw_bad_castv() #9
  unreachable

147:                                              ; preds = %136
  %148 = getelementptr inbounds %"class.std::ctype", %"class.std::ctype"* %144, i64 0, i32 8
  %149 = load i8, i8* %148, align 8, !tbaa !23
  %150 = icmp eq i8 %149, 0
  br i1 %150, label %154, label %151

151:                                              ; preds = %147
  %152 = getelementptr inbounds %"class.std::ctype", %"class.std::ctype"* %144, i64 0, i32 9, i64 10
  %153 = load i8, i8* %152, align 1, !tbaa !25
  br label %160

154:                                              ; preds = %147
  call void @_ZNKSt5ctypeIcE13_M_widen_initEv(%"class.std::ctype"* nonnull align 8 dereferenceable(570) %144)
  %155 = bitcast %"class.std::ctype"* %144 to i8 (%"class.std::ctype"*, i8)***
  %156 = load i8 (%"class.std::ctype"*, i8)**, i8 (%"class.std::ctype"*, i8)*** %155, align 8, !tbaa !17
  %157 = getelementptr inbounds i8 (%"class.std::ctype"*, i8)*, i8 (%"class.std::ctype"*, i8)** %156, i64 6
  %158 = load i8 (%"class.std::ctype"*, i8)*, i8 (%"class.std::ctype"*, i8)** %157, align 8
  %159 = call signext i8 %158(%"class.std::ctype"* nonnull align 8 dereferenceable(570) %144, i8 signext 10)
  br label %160

160:                                              ; preds = %151, %154
  %161 = phi i8 [ %153, %151 ], [ %159, %154 ]
  %162 = call nonnull align 8 dereferenceable(8) %"class.std::basic_ostream"* @_ZNSo3putEc(%"class.std::basic_ostream"* nonnull align 8 dereferenceable(8) @_ZSt4cout, i8 signext %161)
  %163 = call nonnull align 8 dereferenceable(8) %"class.std::basic_ostream"* @_ZNSo5flushEv(%"class.std::basic_ostream"* nonnull align 8 dereferenceable(8) %162)
  call void @llvm.stackrestore(i8* %8)
  call void @llvm.lifetime.end.p0i8(i64 4, i8* nonnull %4) #8
  call void @llvm.lifetime.end.p0i8(i64 4, i8* nonnull %3) #8
  ret i32 0
}

; Function Attrs: argmemonly mustprogress nofree nosync nounwind willreturn
declare void @llvm.lifetime.start.p0i8(i64 immarg, i8* nocapture) #4

declare nonnull align 8 dereferenceable(16) %"class.std::basic_istream"* @_ZNSirsERi(%"class.std::basic_istream"* nonnull align 8 dereferenceable(16), i32* nonnull align 4 dereferenceable(4)) local_unnamed_addr #0

; Function Attrs: mustprogress nofree nosync nounwind willreturn
declare i8* @llvm.stacksave() #5

declare nonnull align 8 dereferenceable(8) %"class.std::basic_ostream"* @_ZNSolsEi(%"class.std::basic_ostream"* nonnull align 8 dereferenceable(8), i32) local_unnamed_addr #0

; Function Attrs: mustprogress nofree nosync nounwind willreturn
declare void @llvm.stackrestore(i8*) #5

; Function Attrs: argmemonly mustprogress nofree nosync nounwind willreturn
declare void @llvm.lifetime.end.p0i8(i64 immarg, i8* nocapture) #4

declare nonnull align 8 dereferenceable(8) %"class.std::basic_ostream"* @_ZSt16__ostream_insertIcSt11char_traitsIcEERSt13basic_ostreamIT_T0_ES6_PKS3_l(%"class.std::basic_ostream"* nonnull align 8 dereferenceable(8), i8*, i64) local_unnamed_addr #0

declare nonnull align 8 dereferenceable(8) %"class.std::basic_ostream"* @_ZNSo3putEc(%"class.std::basic_ostream"* nonnull align 8 dereferenceable(8), i8 signext) local_unnamed_addr #0

declare nonnull align 8 dereferenceable(8) %"class.std::basic_ostream"* @_ZNSo5flushEv(%"class.std::basic_ostream"* nonnull align 8 dereferenceable(8)) local_unnamed_addr #0

; Function Attrs: noreturn
declare void @_ZSt16__throw_bad_castv() local_unnamed_addr #6

declare void @_ZNKSt5ctypeIcE13_M_widen_initEv(%"class.std::ctype"* nonnull align 8 dereferenceable(570)) local_unnamed_addr #0

; Function Attrs: sspstrong uwtable
define internal void @_GLOBAL__sub_I_275.cpp() #7 section ".text.startup" {
  tail call void @_ZNSt8ios_base4InitC1Ev(%"class.std::ios_base::Init"* nonnull align 1 dereferenceable(1) @_ZStL8__ioinit)
  %1 = tail call i32 @__cxa_atexit(void (i8*)* bitcast (void (%"class.std::ios_base::Init"*)* @_ZNSt8ios_base4InitD1Ev to void (i8*)*), i8* getelementptr inbounds (%"class.std::ios_base::Init", %"class.std::ios_base::Init"* @_ZStL8__ioinit, i64 0, i32 0), i8* nonnull @__dso_handle) #8
  ret void
}


!llvm.module.flags = !{!0, !1, !2, !3}
!llvm.ident = !{!4}

!0 = !{i32 1, !"wchar_size", i32 4}
!1 = !{i32 7, !"PIC Level", i32 2}
!2 = !{i32 7, !"PIE Level", i32 2}
!3 = !{i32 7, !"uwtable", i32 1}
!4 = !{!"clang version 13.0.0"}
!5 = !{!6, !6, i64 0}
!6 = !{!"int", !7, i64 0}
!7 = !{!"omnipotent char", !8, i64 0}
!8 = !{!"Simple C++ TBAA"}
!9 = distinct !{!9, !10}
!10 = !{!"llvm.loop.mustprogress"}
!11 = distinct !{!11, !10, !12}
!12 = !{!"llvm.loop.isvectorized", i32 1}
!13 = distinct !{!13, !10, !14, !12}
!14 = !{!"llvm.loop.unroll.runtime.disable"}
!15 = distinct !{!15, !10}
!16 = distinct !{!16, !10}
!17 = !{!18, !18, i64 0}
!18 = !{!"vtable pointer", !8, i64 0}
!19 = !{!20, !21, i64 240}
!20 = !{!"_ZTSSt9basic_iosIcSt11char_traitsIcEE", !21, i64 216, !7, i64 224, !22, i64 225, !21, i64 232, !21, i64 240, !21, i64 248, !21, i64 256}
!21 = !{!"any pointer", !7, i64 0}
!22 = !{!"bool", !7, i64 0}
!23 = !{!24, !7, i64 56}
!24 = !{!"_ZTSSt5ctypeIcE", !21, i64 16, !22, i64 24, !21, i64 32, !21, i64 40, !21, i64 48, !7, i64 56, !7, i64 57, !7, i64 313, !7, i64 569}
!25 = !{!7, !7, i64 0}
